target datalayout = "e-m:e-p270:32:32-p271:32:32-p272:64:64-i64:64-i128:128-f80:128-n8:16:32:64-S128"
target triple = "x86_64-pc-linux-gnu"

%struct.H5_user_cb_state_t = type { %struct.H5E_user_cb_state_t }
%struct.H5E_user_cb_state_t = type { i32, %union.anon, ptr }
%union.anon = type { ptr }
%struct.H5FD_t = type { i64, ptr, i64, i32, i64, i64, i64, i64, i64, i8 }
%struct.H5FD_class_t = type { i32, i32, ptr, i64, i32, ptr, ptr, ptr, ptr, i64, ptr, ptr, ptr, i64, ptr, ptr, ptr, ptr, ptr, ptr, ptr, ptr, ptr, ptr, ptr, ptr, ptr, ptr, ptr, ptr, ptr, ptr, ptr, ptr, ptr, ptr, ptr, ptr, ptr, [7 x i32] }

@H5FD_init_g = external global i8, align 1
@H5_libterm_g = external global i8, align 1
@.str = private unnamed_addr constant [101 x i8] c"generated/home/dtcxzyw/WorkSpace/Projects/compilers/llvm-opt-benchmark/bench/hdf5/hdf5/src/H5FDint.c\00", align 1
@H5E_CANTINIT_g = external global i64, align 8
@H5E_FUNC_g = external global i64, align 8
@.str.6 = private unnamed_addr constant [32 x i8] c"interface initialization failed\00", align 1
@H5E_LIB_g = external global i64, align 8
@H5E_CANTSET_g = external global i64, align 8
@.str.7 = private unnamed_addr constant [37 x i8] c"preparation for user callback failed\00", align 1
@H5E_CANTRESTORE_g = external global i64, align 8
@H5E_VFL_g = external global i64, align 8
@.str.8 = private unnamed_addr constant [30 x i8] c"driver get_eoa request failed\00", align 1
@__func__.H5FD_get_eoa = private unnamed_addr constant [13 x i8] c"H5FD_get_eoa\00", align 1

; Function Attrs: nounwind uwtable
define i64 @H5FD_get_eoa(ptr noundef %0, i32 noundef %1) #0 {
  %3 = alloca i64, align 8
  %4 = alloca ptr, align 8
  %5 = alloca i32, align 4
  %6 = alloca i64, align 8
  %7 = alloca i8, align 1
  %8 = alloca %struct.H5_user_cb_state_t, align 8
  %9 = alloca i32, align 4
  store ptr %0, ptr %4, align 8, !tbaa !3
  store i32 %1, ptr %5, align 4, !tbaa !12
  call void @llvm.lifetime.start.p0(i64 8, ptr %6) #8
  store i64 -1, ptr %6, align 8, !tbaa !10
  call void @llvm.lifetime.start.p0(i64 1, ptr %7) #8
  store i8 0, ptr %7, align 1, !tbaa !14
  %10 = load i8, ptr @H5FD_init_g, align 1, !tbaa !14, !range !16, !noundef !17
  %11 = trunc i8 %10 to i1
  br i1 %11, label %16, label %12

12:                                               ; preds = %2
  %13 = load i8, ptr @H5_libterm_g, align 1, !tbaa !14, !range !16, !noundef !17
  %14 = trunc i8 %13 to i1
  %15 = xor i1 %14, true
  br label %16

16:                                               ; preds = %12, %2
  %17 = phi i1 [ false, %2 ], [ %15, %12 ]
  %18 = xor i1 %17, true
  %19 = xor i1 %18, true
  %20 = zext i1 %19 to i32
  %21 = sext i32 %20 to i64
  %22 = call i64 @llvm.expect.i64(i64 %21, i64 0)
  %23 = icmp ne i64 %22, 0
  br i1 %23, label %24, label %47

24:                                               ; preds = %16
  store i8 1, ptr @H5FD_init_g, align 1, !tbaa !14
  %25 = call i32 @H5FD__init_package()
  %26 = icmp slt i32 %25, 0
  br i1 %26, label %27, label %46

27:                                               ; preds = %24
  store i8 0, ptr @H5FD_init_g, align 1, !tbaa !14
  br label %28

28:                                               ; preds = %27
  br label %29

29:                                               ; preds = %28
  br label %30

30:                                               ; preds = %29
  %31 = load i64, ptr @H5E_FUNC_g, align 8, !tbaa !10
  %32 = load i64, ptr @H5E_CANTINIT_g, align 8, !tbaa !10
  %33 = call i32 (ptr, ptr, i32, i64, i64, ptr, ...) @H5E_printf_stack(ptr noundef @.str, ptr noundef @__func__.H5FD_get_eoa, i32 noundef 2452, i64 noundef %31, i64 noundef %32, ptr noundef @.str.6)
  br label %34

34:                                               ; preds = %30
  br label %35

35:                                               ; preds = %34
  store i8 1, ptr %7, align 1, !tbaa !14
  %36 = load i8, ptr %7, align 1, !tbaa !14, !range !16, !noundef !17
  %37 = trunc i8 %36 to i1
  %38 = zext i1 %37 to i8
  store i8 %38, ptr %7, align 1, !tbaa !14
  br label %39

39:                                               ; preds = %35
  br label %40

40:                                               ; preds = %39
  br label %41

41:                                               ; preds = %40
  store i64 -1, ptr %6, align 8, !tbaa !10
  br label %145

42:                                               ; No predecessors!
  br label %43

43:                                               ; preds = %42
  br label %44

44:                                               ; preds = %43
  br label %45

45:                                               ; preds = %44
  br label %46

46:                                               ; preds = %45, %24
  br label %47

47:                                               ; preds = %46, %16
  %48 = load i8, ptr @H5FD_init_g, align 1, !tbaa !14, !range !16, !noundef !17
  %49 = trunc i8 %48 to i1
  br i1 %49, label %54, label %50

50:                                               ; preds = %47
  %51 = load i8, ptr @H5_libterm_g, align 1, !tbaa !14, !range !16, !noundef !17
  %52 = trunc i8 %51 to i1
  %53 = xor i1 %52, true
  br label %54

54:                                               ; preds = %50, %47
  %55 = phi i1 [ true, %47 ], [ %53, %50 ]
  %56 = xor i1 %55, true
  %57 = xor i1 %56, true
  %58 = zext i1 %57 to i32
  %59 = sext i32 %58 to i64
  %60 = call i64 @llvm.expect.i64(i64 %59, i64 1)
  %61 = icmp ne i64 %60, 0
  br i1 %61, label %62, label %146

62:                                               ; preds = %54
  call void @llvm.lifetime.start.p0(i64 24, ptr %8) #8
  %63 = call i32 @H5_user_cb_prepare(ptr noundef %8)
  %64 = icmp slt i32 %63, 0
  br i1 %64, label %65, label %84

65:                                               ; preds = %62
  br label %66

66:                                               ; preds = %65
  br label %67

67:                                               ; preds = %66
  br label %68

68:                                               ; preds = %67
  %69 = load i64, ptr @H5E_LIB_g, align 8, !tbaa !10
  %70 = load i64, ptr @H5E_CANTSET_g, align 8, !tbaa !10
  %71 = call i32 (ptr, ptr, i32, i64, i64, ptr, ...) @H5E_printf_stack(ptr noundef @.str, ptr noundef @__func__.H5FD_get_eoa, i32 noundef 2457, i64 noundef %69, i64 noundef %70, ptr noundef @.str.7)
  br label %72

72:                                               ; preds = %68
  br label %73

73:                                               ; preds = %72
  store i8 1, ptr %7, align 1, !tbaa !14
  %74 = load i8, ptr %7, align 1, !tbaa !14, !range !16, !noundef !17
  %75 = trunc i8 %74 to i1
  %76 = zext i1 %75 to i8
  store i8 %76, ptr %7, align 1, !tbaa !14
  br label %77

77:                                               ; preds = %73
  br label %78

78:                                               ; preds = %77
  br label %79

79:                                               ; preds = %78
  store i64 -1, ptr %6, align 8, !tbaa !10
  store i32 10, ptr %9, align 4
  br label %115

80:                                               ; No predecessors!
  br label %81

81:                                               ; preds = %80
  br label %82

82:                                               ; preds = %81
  br label %83

83:                                               ; preds = %82
  br label %84

84:                                               ; preds = %83, %62
  %85 = load ptr, ptr %4, align 8, !tbaa !3
  %86 = getelementptr inbounds nuw %struct.H5FD_t, ptr %85, i32 0, i32 1
  %87 = load ptr, ptr %86, align 8, !tbaa !21
  %88 = getelementptr inbounds nuw %struct.H5FD_class_t, ptr %87, i32 0, i32 23
  %89 = load ptr, ptr %88, align 8, !tbaa !29
  %90 = load ptr, ptr %4, align 8, !tbaa !3
  %91 = load i32, ptr %5, align 4, !tbaa !12
  %92 = call i64 %89(ptr noundef %90, i32 noundef %91)
  store i64 %92, ptr %6, align 8, !tbaa !10
  %93 = call i32 @H5_user_cb_restore(ptr noundef %8)
  %94 = icmp slt i32 %93, 0
  br i1 %94, label %95, label %114

95:                                               ; preds = %84
  br label %96

96:                                               ; preds = %95
  br label %97

97:                                               ; preds = %96
  br label %98

98:                                               ; preds = %97
  %99 = load i64, ptr @H5E_LIB_g, align 8, !tbaa !10
  %100 = load i64, ptr @H5E_CANTRESTORE_g, align 8, !tbaa !10
  %101 = call i32 (ptr, ptr, i32, i64, i64, ptr, ...) @H5E_printf_stack(ptr noundef @.str, ptr noundef @__func__.H5FD_get_eoa, i32 noundef 2462, i64 noundef %99, i64 noundef %100, ptr noundef @.str.7)
  br label %102

102:                                              ; preds = %98
  br label %103

103:                                              ; preds = %102
  store i8 1, ptr %7, align 1, !tbaa !14
  %104 = load i8, ptr %7, align 1, !tbaa !14, !range !16, !noundef !17
  %105 = trunc i8 %104 to i1
  %106 = zext i1 %105 to i8
  store i8 %106, ptr %7, align 1, !tbaa !14
  br label %107

107:                                              ; preds = %103
  br label %108

108:                                              ; preds = %107
  br label %109

109:                                              ; preds = %108
  store i64 -1, ptr %6, align 8, !tbaa !10
  store i32 10, ptr %9, align 4
  br label %115

110:                                              ; No predecessors!
  br label %111

111:                                              ; preds = %110
  br label %112

112:                                              ; preds = %111
  br label %113

113:                                              ; preds = %112
  br label %114

114:                                              ; preds = %113, %84
  store i32 0, ptr %9, align 4
  br label %115

115:                                              ; preds = %109, %79, %114
  call void @llvm.lifetime.end.p0(i64 24, ptr %8) #8
  %116 = load i32, ptr %9, align 4
  switch i32 %116, label %148 [
    i32 0, label %117
    i32 10, label %145
  ]

117:                                              ; preds = %115
  %118 = load i64, ptr %6, align 8, !tbaa !10
  %119 = icmp ne i64 %118, -1
  br i1 %119, label %139, label %120

120:                                              ; preds = %117
  br label %121

121:                                              ; preds = %120
  br label %122

122:                                              ; preds = %121
  br label %123

123:                                              ; preds = %122
  %124 = load i64, ptr @H5E_VFL_g, align 8, !tbaa !10
  %125 = load i64, ptr @H5E_CANTINIT_g, align 8, !tbaa !10
  %126 = call i32 (ptr, ptr, i32, i64, i64, ptr, ...) @H5E_printf_stack(ptr noundef @.str, ptr noundef @__func__.H5FD_get_eoa, i32 noundef 2464, i64 noundef %124, i64 noundef %125, ptr noundef @.str.8)
  br label %127

127:                                              ; preds = %123
  br label %128

128:                                              ; preds = %127
  store i8 1, ptr %7, align 1, !tbaa !14
  %129 = load i8, ptr %7, align 1, !tbaa !14, !range !16, !noundef !17
  %130 = trunc i8 %129 to i1
  %131 = zext i1 %130 to i8
  store i8 %131, ptr %7, align 1, !tbaa !14
  br label %132

132:                                              ; preds = %128
  br label %133

133:                                              ; preds = %132
  br label %134

134:                                              ; preds = %133
  store i64 -1, ptr %6, align 8, !tbaa !10
  br label %145

135:                                              ; No predecessors!
  br label %136

136:                                              ; preds = %135
  br label %137

137:                                              ; preds = %136
  br label %138

138:                                              ; preds = %137
  br label %139

139:                                              ; preds = %138, %117
  %140 = load ptr, ptr %4, align 8, !tbaa !3
  %141 = getelementptr inbounds nuw %struct.H5FD_t, ptr %140, i32 0, i32 6
  %142 = load i64, ptr %141, align 8, !tbaa !28
  %143 = load i64, ptr %6, align 8, !tbaa !10
  %144 = sub i64 %143, %142
  store i64 %144, ptr %6, align 8, !tbaa !10
  br label %145

145:                                              ; preds = %139, %115, %134, %41
  br label %146

146:                                              ; preds = %145, %54
  %147 = load i64, ptr %6, align 8, !tbaa !10
  store i64 %147, ptr %3, align 8
  store i32 1, ptr %9, align 4
  br label %148

148:                                              ; preds = %146, %115
  call void @llvm.lifetime.end.p0(i64 1, ptr %7) #8
  call void @llvm.lifetime.end.p0(i64 8, ptr %6) #8
  %149 = load i64, ptr %3, align 8
  ret i64 %149
}