; Function Attrs: nounwind uwtable
define i64 @H5FD_get_eoa(ptr noundef %0, i32 noundef %1) local_unnamed_addr #0 {
  %3 = alloca %struct.H5_user_cb_state_t, align 8
  %4 = load i8, ptr @H5FD_init_g, align 1, !tbaa !3, !range !7, !noundef !8
  %5 = trunc nuw i8 %4 to i1
  %6 = load i8, ptr @H5_libterm_g, align 1, !range !7
  %7 = trunc nuw i8 %6 to i1
  %8 = select i1 %5, i1 true, i1 %7
  br i1 %8, label %16, label %9, !prof !9

9:                                                ; preds = %2
  store i8 1, ptr @H5FD_init_g, align 1, !tbaa !3
  %10 = tail call i32 @H5FD__init_package() #12
  %11 = icmp slt i32 %10, 0
  br i1 %11, label %12, label %._crit_edge

._crit_edge:                                      ; preds = %9
  %.pre = load i8, ptr @H5FD_init_g, align 1, !tbaa !3, !range !7
  %.pre17 = load i8, ptr @H5_libterm_g, align 1, !range !7
  %.pre18 = trunc nuw i8 %.pre to i1
  %.pre19 = trunc nuw i8 %.pre17 to i1
  br label %16

12:                                               ; preds = %9
  store i8 0, ptr @H5FD_init_g, align 1, !tbaa !3
  %13 = load i64, ptr @H5E_FUNC_g, align 8, !tbaa !10
  %14 = load i64, ptr @H5E_CANTINIT_g, align 8, !tbaa !10
  %15 = tail call i32 (ptr, ptr, i32, i64, i64, ptr, ...) @H5E_printf_stack(ptr noundef nonnull @.str, ptr noundef nonnull @__func__.H5FD_get_eoa, i32 noundef 2452, i64 noundef %13, i64 noundef %14, ptr noundef nonnull @.str.6) #12
  br label %42

16:                                               ; preds = %._crit_edge, %2
  %.pre-phi20 = phi i1 [ %.pre19, %._crit_edge ], [ %7, %2 ]
  %.pre-phi = phi i1 [ %.pre18, %._crit_edge ], [ %5, %2 ]
  %17 = xor i1 %.pre-phi20, true
  %18 = select i1 %.pre-phi, i1 true, i1 %17
  br i1 %18, label %19, label %42, !prof !9

19:                                               ; preds = %16
  call void @llvm.lifetime.start.p0(i64 24, ptr nonnull %3) #12
  %20 = call i32 @H5_user_cb_prepare(ptr noundef nonnull %3) #12
  %21 = icmp slt i32 %20, 0
  br i1 %21, label %.thread, label %22

22:                                               ; preds = %19
  %23 = getelementptr inbounds nuw i8, ptr %0, i64 8
  %24 = load ptr, ptr %23, align 8, !tbaa !15
  %25 = getelementptr inbounds nuw i8, ptr %24, i64 176
  %26 = load ptr, ptr %25, align 8, !tbaa !25
  %27 = call i64 %26(ptr noundef %0, i32 noundef %1) #12
  %28 = call i32 @H5_user_cb_restore(ptr noundef nonnull %3) #12
  %29 = icmp slt i32 %28, 0
  br i1 %29, label %.thread, label %33

.thread:                                          ; preds = %22, %19
  %H5E_CANTSET_g.sink = phi ptr [ @H5E_CANTSET_g, %19 ], [ @H5E_CANTRESTORE_g, %22 ]
  %.sink = phi i32 [ 2457, %19 ], [ 2462, %22 ]
  %30 = load i64, ptr @H5E_LIB_g, align 8, !tbaa !10
  %31 = load i64, ptr %H5E_CANTSET_g.sink, align 8, !tbaa !10
  %32 = call i32 (ptr, ptr, i32, i64, i64, ptr, ...) @H5E_printf_stack(ptr noundef nonnull @.str, ptr noundef nonnull @__func__.H5FD_get_eoa, i32 noundef %.sink, i64 noundef %30, i64 noundef %31, ptr noundef nonnull @.str.7) #12
  call void @llvm.lifetime.end.p0(i64 24, ptr nonnull %3) #12
  br label %42

33:                                               ; preds = %22
  call void @llvm.lifetime.end.p0(i64 24, ptr nonnull %3) #12
  %.not = icmp eq i64 %27, -1
  br i1 %.not, label %34, label %38

34:                                               ; preds = %33
  %35 = load i64, ptr @H5E_VFL_g, align 8, !tbaa !10
  %36 = load i64, ptr @H5E_CANTINIT_g, align 8, !tbaa !10
  %37 = call i32 (ptr, ptr, i32, i64, i64, ptr, ...) @H5E_printf_stack(ptr noundef nonnull @.str, ptr noundef nonnull @__func__.H5FD_get_eoa, i32 noundef 2464, i64 noundef %35, i64 noundef %36, ptr noundef nonnull @.str.8) #12
  br label %42

38:                                               ; preds = %33
  %39 = getelementptr inbounds nuw i8, ptr %0, i64 48
  %40 = load i64, ptr %39, align 8, !tbaa !24
  %41 = sub i64 %27, %40
  br label %42

42:                                               ; preds = %.thread, %16, %38, %34, %12
  %.013 = phi i64 [ -1, %12 ], [ %41, %38 ], [ -1, %34 ], [ -1, %16 ], [ -1, %.thread ]
  ret i64 %.013
}